; Function Attrs: mustprogress nofree nounwind willreturn memory(read, inaccessiblemem: none) uwtable
define dso_local noundef zeroext i1 @_Z26cmFileSetTypeCanBeIncludedRKNSt7__cxx1112basic_stringIcSt11char_traitsIcESaIcEEE(ptr noundef nonnull readonly align 8 captures(none) dereferenceable(32) %0) local_unnamed_addr #8 personality ptr @__gxx_personality_v0 {
  %2 = getelementptr inbounds nuw i8, ptr %0, i64 8
  %3 = load i64, ptr %2, align 8, !tbaa !30
  %4 = icmp eq i64 %3, 7
  br i1 %4, label %_ZNSt11char_traitsIcE7compareEPKcS2_m.exit.i.i, label %_ZSteqIcSt11char_traitsIcEEbNSt15__type_identityISt17basic_string_viewIT_T0_EE4typeES6_.exit

_ZNSt11char_traitsIcE7compareEPKcS2_m.exit.i.i:   ; preds = %1
  %5 = load ptr, ptr %0, align 8, !tbaa !27
  %bcmp.i = tail call i32 @bcmp(ptr noundef nonnull dereferenceable(7) %5, ptr noundef nonnull dereferenceable(7) @.str.8, i64 7)
  %6 = icmp eq i32 %bcmp.i, 0
  br label %_ZSteqIcSt11char_traitsIcEEbNSt15__type_identityISt17basic_string_viewIT_T0_EE4typeES6_.exit

_ZSteqIcSt11char_traitsIcEEbNSt15__type_identityISt17basic_string_viewIT_T0_EE4typeES6_.exit: ; preds = %_ZNSt11char_traitsIcE7compareEPKcS2_m.exit.i.i, %1
  %7 = phi i1 [ false, %1 ], [ %6, %_ZNSt11char_traitsIcE7compareEPKcS2_m.exit.i.i ]
  ret i1 %7
}